target datalayout = "e-m:e-p270:32:32-p271:32:32-p272:64:64-i64:64-i128:128-f80:128-n8:16:32:64-S128"
target triple = "x86_64-pc-linux-gnu"

%struct.__va_list_tag = type { i32, i32, ptr, ptr }

@_libsaproc_debug = internal global i32 0, align 4
@.str.2 = private unnamed_addr constant [18 x i8] c"libsaproc DEBUG: \00", align 1
@stderr = external global ptr, align 8

; Function Attrs: nounwind uwtable
define hidden void @print_debug(ptr noundef %0, ...) #0 {
  %2 = alloca ptr, align 8
  %3 = alloca [1 x %struct.__va_list_tag], align 16
  store ptr %0, ptr %2, align 8
  %4 = load i32, ptr @_libsaproc_debug, align 4
  %5 = icmp ne i32 %4, 0
  br i1 %5, label %6, label %15

6:                                                ; preds = %1
  %7 = getelementptr inbounds [1 x %struct.__va_list_tag], ptr %3, i64 0, i64 0
  call void @llvm.va_start.p0(ptr %7)
  %8 = load ptr, ptr @stderr, align 8
  %9 = call i32 @fputs(ptr noundef @.str.2, ptr noundef %8)
  %10 = load ptr, ptr @stderr, align 8
  %11 = load ptr, ptr %2, align 8
  %12 = getelementptr inbounds [1 x %struct.__va_list_tag], ptr %3, i64 0, i64 0
  %13 = call i32 @vfprintf(ptr noundef %10, ptr noundef %11, ptr noundef %12) #6
  %14 = getelementptr inbounds [1 x %struct.__va_list_tag], ptr %3, i64 0, i64 0
  call void @llvm.va_end.p0(ptr %14)
  br label %15

15:                                               ; preds = %6, %1
  ret void
}