; Function Attrs: nofree nounwind uwtable
define hidden void @print_debug(ptr nocapture noundef readonly %0, ...) local_unnamed_addr #0 {
  %2 = alloca [1 x %struct.__va_list_tag], align 16
  %3 = load i32, ptr @_libsaproc_debug, align 4
  %.not = icmp eq i32 %3, 0
  br i1 %.not, label %9, label %4

4:                                                ; preds = %1
  call void @llvm.va_start.p0(ptr nonnull %2)
  %5 = load ptr, ptr @stderr, align 8
  %6 = call i64 @fwrite(ptr nonnull @.str.2, i64 17, i64 1, ptr %5) #23
  %7 = load ptr, ptr @stderr, align 8
  %8 = call i32 @vfprintf(ptr noundef %7, ptr noundef %0, ptr noundef nonnull %2) #24
  call void @llvm.va_end.p0(ptr nonnull %2)
  br label %9

9:                                                ; preds = %4, %1
  ret void
}